target datalayout = "e-m:e-p270:32:32-p271:32:32-p272:64:64-i64:64-i128:128-f80:128-n8:16:32:64-S128"
target triple = "x86_64-unknown-linux-gnu"

%"class.icu_75::UObject" = type { ptr }
%"class.icu_75::number::SimpleNumberFormatter" = type { i32, ptr, ptr, ptr }
%"struct.icu_75::number::impl::SimpleMicroProps" = type { [4 x i8], %"class.icu_75::number::impl::Grouper", i8, i32, %"class.icu_75::UnicodeString", ptr }
%"class.icu_75::number::impl::Grouper" = type { i16, i16, i16, i32 }
%"class.icu_75::UnicodeString" = type { %"class.icu_75::Replaceable", %"union.icu_75::UnicodeString::StackBufferOrFields" }
%"class.icu_75::Replaceable" = type { %"class.icu_75::UObject" }
%"union.icu_75::UnicodeString::StackBufferOrFields" = type { %struct.anon.5, [32 x i8] }
%struct.anon.5 = type { i16, i32, i32, ptr }

; Function Attrs: mustprogress nounwind uwtable
define linkonce_odr void @_ZN6icu_756number4impl16SimpleMicroPropsD2Ev(ptr noundef nonnull align 8 dereferenceable(96) %this) unnamed_addr #0 comdat align 2 {
entry:
  %this.addr = alloca ptr, align 8
  store ptr %this, ptr %this.addr, align 8
  %this1 = load ptr, ptr %this.addr, align 8
  %currencyAsDecimal = getelementptr inbounds %"struct.icu_75::number::impl::SimpleMicroProps", ptr %this1, i32 0, i32 4
  call void @_ZN6icu_7513UnicodeStringD1Ev(ptr noundef nonnull align 8 dereferenceable(64) %currencyAsDecimal) #9
  ret void
}

; Function Attrs: mustprogress nounwind uwtable
define void @_ZN6icu_756number21SimpleNumberFormatter7cleanupEv(ptr noundef nonnull align 8 dereferenceable(32) %this) #0 align 2 {
entry:
  %this.addr = alloca ptr, align 8
  store ptr %this, ptr %this.addr, align 8
  %this1 = load ptr, ptr %this.addr, align 8
  %fOwnedSymbols = getelementptr inbounds %"class.icu_75::number::SimpleNumberFormatter", ptr %this1, i32 0, i32 1
  %0 = load ptr, ptr %fOwnedSymbols, align 8
  %isnull = icmp eq ptr %0, null
  br i1 %isnull, label %delete.end, label %delete.notnull

delete.notnull:                                   ; preds = %entry
  %vtable = load ptr, ptr %0, align 8
  %vfn = getelementptr inbounds ptr, ptr %vtable, i64 1
  %1 = load ptr, ptr %vfn, align 8
  call void %1(ptr noundef nonnull align 8 dereferenceable(2883) %0) #9
  br label %delete.end

delete.end:                                       ; preds = %delete.notnull, %entry
  %fMicros = getelementptr inbounds %"class.icu_75::number::SimpleNumberFormatter", ptr %this1, i32 0, i32 2
  %2 = load ptr, ptr %fMicros, align 8
  %isnull2 = icmp eq ptr %2, null
  br i1 %isnull2, label %delete.end4, label %delete.notnull3

delete.notnull3:                                  ; preds = %delete.end
  call void @_ZN6icu_756number4impl16SimpleMicroPropsD2Ev(ptr noundef nonnull align 8 dereferenceable(96) %2) #9
  call void @_ZN6icu_757UMemorydlEPv(ptr noundef %2) #9
  br label %delete.end4

delete.end4:                                      ; preds = %delete.notnull3, %delete.end
  %fPatternModifier = getelementptr inbounds %"class.icu_75::number::SimpleNumberFormatter", ptr %this1, i32 0, i32 3
  %3 = load ptr, ptr %fPatternModifier, align 8
  %isnull5 = icmp eq ptr %3, null
  br i1 %isnull5, label %delete.end9, label %delete.notnull6

delete.notnull6:                                  ; preds = %delete.end4
  %vtable7 = load ptr, ptr %3, align 8
  %vfn8 = getelementptr inbounds ptr, ptr %vtable7, i64 1
  %4 = load ptr, ptr %vfn8, align 8
  call void %4(ptr noundef nonnull align 8 dereferenceable(40) %3) #9
  br label %delete.end9

delete.end9:                                      ; preds = %delete.notnull6, %delete.end4
  %fOwnedSymbols10 = getelementptr inbounds %"class.icu_75::number::SimpleNumberFormatter", ptr %this1, i32 0, i32 1
  store ptr null, ptr %fOwnedSymbols10, align 8
  %fMicros11 = getelementptr inbounds %"class.icu_75::number::SimpleNumberFormatter", ptr %this1, i32 0, i32 2
  store ptr null, ptr %fMicros11, align 8
  %fPatternModifier12 = getelementptr inbounds %"class.icu_75::number::SimpleNumberFormatter", ptr %this1, i32 0, i32 3
  store ptr null, ptr %fPatternModifier12, align 8
  ret void
}