; Function Attrs: mustprogress nounwind uwtable
define void @_ZN6icu_756number21SimpleNumberFormatter7cleanupEv(ptr nocapture noundef nonnull align 8 dereferenceable(32) %this) local_unnamed_addr #0 align 2 {
entry:
  %fOwnedSymbols = getelementptr inbounds i8, ptr %this, i64 8
  %0 = load ptr, ptr %fOwnedSymbols, align 8
  %isnull = icmp eq ptr %0, null
  br i1 %isnull, label %delete.end, label %delete.notnull

delete.notnull:                                   ; preds = %entry
  %vtable = load ptr, ptr %0, align 8
  %vfn = getelementptr inbounds i8, ptr %vtable, i64 8
  %1 = load ptr, ptr %vfn, align 8
  tail call void %1(ptr noundef nonnull align 8 dereferenceable(2883) %0) #11
  br label %delete.end

delete.end:                                       ; preds = %delete.notnull, %entry
  %fMicros = getelementptr inbounds i8, ptr %this, i64 16
  %2 = load ptr, ptr %fMicros, align 8
  %isnull2 = icmp eq ptr %2, null
  br i1 %isnull2, label %delete.end4, label %delete.notnull3

delete.notnull3:                                  ; preds = %delete.end
  %currencyAsDecimal.i = getelementptr inbounds i8, ptr %2, i64 24
  tail call void @_ZN6icu_7513UnicodeStringD1Ev(ptr noundef nonnull align 8 dereferenceable(64) %currencyAsDecimal.i) #11
  tail call void @_ZN6icu_757UMemorydlEPv(ptr noundef nonnull %2) #11
  br label %delete.end4

delete.end4:                                      ; preds = %delete.notnull3, %delete.end
  %fPatternModifier = getelementptr inbounds i8, ptr %this, i64 24
  %3 = load ptr, ptr %fPatternModifier, align 8
  %isnull5 = icmp eq ptr %3, null
  br i1 %isnull5, label %delete.end9, label %delete.notnull6

delete.notnull6:                                  ; preds = %delete.end4
  %vtable7 = load ptr, ptr %3, align 8
  %vfn8 = getelementptr inbounds i8, ptr %vtable7, i64 8
  %4 = load ptr, ptr %vfn8, align 8
  tail call void %4(ptr noundef nonnull align 8 dereferenceable(40) %3) #11
  br label %delete.end9

delete.end9:                                      ; preds = %delete.notnull6, %delete.end4
  tail call void @llvm.memset.p0.i64(ptr noundef nonnull align 8 dereferenceable(24) %fOwnedSymbols, i8 0, i64 24, i1 false)
  ret void
}